target datalayout = "e-m:e-p270:32:32-p271:32:32-p272:64:64-i64:64-i128:128-f80:128-n8:16:32:64-S128"
target triple = "x86_64-pc-linux-gnu"

%struct.H5D_layout_ops_t = type { ptr, ptr, ptr, ptr, ptr, ptr, ptr, ptr, ptr, ptr, ptr, ptr, ptr }
%struct.H5D_vlen_bufsize_native_t = type { ptr, ptr, ptr, %struct.H5D_vlen_bufsize_common_t }
%struct.H5D_vlen_bufsize_common_t = type { ptr, ptr, i64, i64 }
%struct.H5D_dset_io_info_t = type { ptr, ptr, %struct.H5D_layout_ops_t, %union.H5_flexible_const_ptr_t, %struct.H5D_io_ops_t, ptr, i64, ptr, ptr, %union.anon.16, ptr, %struct.H5D_type_info_t, i8 }
%union.H5_flexible_const_ptr_t = type { ptr }
%struct.H5D_io_ops_t = type { ptr, ptr, ptr, ptr }
%union.anon.16 = type { ptr }
%struct.H5D_type_info_t = type { ptr, ptr, ptr, ptr, ptr, i64, i64, i8, i8, ptr, i32, i64 }

@H5D_init_g = external global i8, align 1
@H5_libterm_g = external global i8, align 1
@.str.2 = private unnamed_addr constant [100 x i8] c"generated/home/dtcxzyw/WorkSpace/Projects/compilers/llvm-opt-benchmark/bench/hdf5/hdf5/src/H5Dint.c\00", align 1
@H5E_DATASET_g = external global i64, align 8
@H5E_CANTCREATE_g = external global i64, align 8
@__func__.H5D__vlen_get_buf_size_cb = private unnamed_addr constant [26 x i8] c"H5D__vlen_get_buf_size_cb\00", align 1
@.str.266 = private unnamed_addr constant [19 x i8] c"can't select point\00", align 1
@H5E_READERROR_g = external global i64, align 8
@.str.267 = private unnamed_addr constant [16 x i8] c"can't read data\00", align 1

; Function Attrs: nounwind uwtable
define internal i32 @H5D__vlen_get_buf_size_cb(ptr noundef %0, ptr noundef %1, i32 noundef %2, ptr noundef %3, ptr noundef %4) #0 {
  %6 = alloca ptr, align 8
  %7 = alloca ptr, align 8
  %8 = alloca i32, align 4
  %9 = alloca ptr, align 8
  %10 = alloca ptr, align 8
  %11 = alloca ptr, align 8
  %12 = alloca %struct.H5D_dset_io_info_t, align 8
  %13 = alloca i32, align 4
  %14 = alloca i8, align 1
  store ptr %0, ptr %6, align 8, !tbaa !60
  store ptr %1, ptr %7, align 8, !tbaa !74
  store i32 %2, ptr %8, align 4, !tbaa !3
  store ptr %3, ptr %9, align 8, !tbaa !140
  store ptr %4, ptr %10, align 8, !tbaa !60
  call void @llvm.lifetime.start.p0(i64 8, ptr %11) #12
  %15 = load ptr, ptr %10, align 8, !tbaa !60
  store ptr %15, ptr %11, align 8, !tbaa !60
  call void @llvm.lifetime.start.p0(i64 304, ptr %12) #12
  call void @llvm.lifetime.start.p0(i64 4, ptr %13) #12
  store i32 0, ptr %13, align 4, !tbaa !3
  call void @llvm.lifetime.start.p0(i64 1, ptr %14) #12
  store i8 0, ptr %14, align 1, !tbaa !7
  %16 = load i8, ptr @H5D_init_g, align 1, !tbaa !7, !range !9, !noundef !10
  %17 = trunc i8 %16 to i1
  br i1 %17, label %22, label %18

18:                                               ; preds = %5
  %19 = load i8, ptr @H5_libterm_g, align 1, !tbaa !7, !range !9, !noundef !10
  %20 = trunc i8 %19 to i1
  %21 = xor i1 %20, true
  br label %22

22:                                               ; preds = %18, %5
  %23 = phi i1 [ true, %5 ], [ %21, %18 ]
  %24 = xor i1 %23, true
  %25 = xor i1 %24, true
  %26 = zext i1 %25 to i32
  %27 = sext i32 %26 to i64
  %28 = call i64 @llvm.expect.i64(i64 %27, i64 1)
  %29 = icmp ne i64 %28, 0
  br i1 %29, label %30, label %99

30:                                               ; preds = %22
  %31 = load ptr, ptr %11, align 8, !tbaa !60
  %32 = getelementptr inbounds nuw %struct.H5D_vlen_bufsize_native_t, ptr %31, i32 0, i32 1
  %33 = load ptr, ptr %32, align 8, !tbaa !148
  %34 = load ptr, ptr %9, align 8, !tbaa !140
  %35 = call i32 @H5S_select_elements(ptr noundef %33, i32 noundef 0, i64 noundef 1, ptr noundef %34)
  %36 = icmp slt i32 %35, 0
  br i1 %36, label %37, label %56

37:                                               ; preds = %30
  br label %38

38:                                               ; preds = %37
  br label %39

39:                                               ; preds = %38
  br label %40

40:                                               ; preds = %39
  %41 = load i64, ptr @H5E_DATASET_g, align 8, !tbaa !11
  %42 = load i64, ptr @H5E_CANTCREATE_g, align 8, !tbaa !11
  %43 = call i32 (ptr, ptr, i32, i64, i64, ptr, ...) @H5E_printf_stack(ptr noundef @.str.2, ptr noundef @__func__.H5D__vlen_get_buf_size_cb, i32 noundef 2702, i64 noundef %41, i64 noundef %42, ptr noundef @.str.266)
  br label %44

44:                                               ; preds = %40
  br label %45

45:                                               ; preds = %44
  store i8 1, ptr %14, align 1, !tbaa !7
  %46 = load i8, ptr %14, align 1, !tbaa !7, !range !9, !noundef !10
  %47 = trunc i8 %46 to i1
  %48 = zext i1 %47 to i8
  store i8 %48, ptr %14, align 1, !tbaa !7
  br label %49

49:                                               ; preds = %45
  br label %50

50:                                               ; preds = %49
  br label %51

51:                                               ; preds = %50
  store i32 -1, ptr %13, align 4, !tbaa !3
  br label %98

52:                                               ; No predecessors!
  br label %53

53:                                               ; preds = %52
  br label %54

54:                                               ; preds = %53
  br label %55

55:                                               ; preds = %54
  br label %56

56:                                               ; preds = %55, %30
  %57 = load ptr, ptr %11, align 8, !tbaa !60
  %58 = getelementptr inbounds nuw %struct.H5D_vlen_bufsize_native_t, ptr %57, i32 0, i32 0
  %59 = load ptr, ptr %58, align 8, !tbaa !145
  %60 = getelementptr inbounds nuw %struct.H5D_dset_io_info_t, ptr %12, i32 0, i32 0
  store ptr %59, ptr %60, align 8, !tbaa !159
  %61 = load ptr, ptr %11, align 8, !tbaa !60
  %62 = getelementptr inbounds nuw %struct.H5D_vlen_bufsize_native_t, ptr %61, i32 0, i32 2
  %63 = load ptr, ptr %62, align 8, !tbaa !149
  %64 = getelementptr inbounds nuw %struct.H5D_dset_io_info_t, ptr %12, i32 0, i32 8
  store ptr %63, ptr %64, align 8, !tbaa !166
  %65 = load ptr, ptr %11, align 8, !tbaa !60
  %66 = getelementptr inbounds nuw %struct.H5D_vlen_bufsize_native_t, ptr %65, i32 0, i32 1
  %67 = load ptr, ptr %66, align 8, !tbaa !148
  %68 = getelementptr inbounds nuw %struct.H5D_dset_io_info_t, ptr %12, i32 0, i32 7
  store ptr %67, ptr %68, align 8, !tbaa !167
  %69 = load ptr, ptr %11, align 8, !tbaa !60
  %70 = getelementptr inbounds nuw %struct.H5D_vlen_bufsize_native_t, ptr %69, i32 0, i32 3
  %71 = getelementptr inbounds nuw %struct.H5D_vlen_bufsize_common_t, ptr %70, i32 0, i32 0
  %72 = load ptr, ptr %71, align 8, !tbaa !150
  %73 = getelementptr inbounds nuw %struct.H5D_dset_io_info_t, ptr %12, i32 0, i32 3
  store ptr %72, ptr %73, align 8, !tbaa !68
  %74 = load ptr, ptr %7, align 8, !tbaa !74
  %75 = getelementptr inbounds nuw %struct.H5D_dset_io_info_t, ptr %12, i32 0, i32 10
  store ptr %74, ptr %75, align 8, !tbaa !168
  %76 = call i32 @H5D__read(i64 noundef 1, ptr noundef %12)
  %77 = icmp slt i32 %76, 0
  br i1 %77, label %78, label %97

78:                                               ; preds = %56
  br label %79

79:                                               ; preds = %78
  br label %80

80:                                               ; preds = %79
  br label %81

81:                                               ; preds = %80
  %82 = load i64, ptr @H5E_DATASET_g, align 8, !tbaa !11
  %83 = load i64, ptr @H5E_READERROR_g, align 8, !tbaa !11
  %84 = call i32 (ptr, ptr, i32, i64, i64, ptr, ...) @H5E_printf_stack(ptr noundef @.str.2, ptr noundef @__func__.H5D__vlen_get_buf_size_cb, i32 noundef 2713, i64 noundef %82, i64 noundef %83, ptr noundef @.str.267)
  br label %85

85:                                               ; preds = %81
  br label %86

86:                                               ; preds = %85
  store i8 1, ptr %14, align 1, !tbaa !7
  %87 = load i8, ptr %14, align 1, !tbaa !7, !range !9, !noundef !10
  %88 = trunc i8 %87 to i1
  %89 = zext i1 %88 to i8
  store i8 %89, ptr %14, align 1, !tbaa !7
  br label %90

90:                                               ; preds = %86
  br label %91

91:                                               ; preds = %90
  br label %92

92:                                               ; preds = %91
  store i32 -1, ptr %13, align 4, !tbaa !3
  br label %98

93:                                               ; No predecessors!
  br label %94

94:                                               ; preds = %93
  br label %95

95:                                               ; preds = %94
  br label %96

96:                                               ; preds = %95
  br label %97

97:                                               ; preds = %96, %56
  br label %98

98:                                               ; preds = %97, %92, %51
  br label %99

99:                                               ; preds = %98, %22
  %100 = load i32, ptr %13, align 4, !tbaa !3
  call void @llvm.lifetime.end.p0(i64 1, ptr %14) #12
  call void @llvm.lifetime.end.p0(i64 4, ptr %13) #12
  call void @llvm.lifetime.end.p0(i64 304, ptr %12) #12
  call void @llvm.lifetime.end.p0(i64 8, ptr %11) #12
  ret i32 %100
}