; Function Attrs: nounwind uwtable
define internal range(i32 -1, 1) i32 @H5D__vlen_get_buf_size_cb(ptr readnone captures(none) %0, ptr noundef %1, i32 %2, ptr noundef %3, ptr noundef readonly captures(none) %4) #0 {
  %6 = alloca %struct.H5D_dset_io_info_t, align 8
  call void @llvm.lifetime.start.p0(i64 304, ptr nonnull %6) #12
  %7 = load i8, ptr @H5D_init_g, align 1, !tbaa !3, !range !7, !noundef !8
  %8 = trunc nuw i8 %7 to i1
  %9 = load i8, ptr @H5_libterm_g, align 1, !range !7
  %10 = trunc nuw i8 %9 to i1
  %11 = xor i1 %10, true
  %12 = select i1 %8, i1 true, i1 %11
  br i1 %12, label %13, label %39, !prof !9

13:                                               ; preds = %5
  %14 = getelementptr inbounds nuw i8, ptr %4, i64 8
  %15 = load ptr, ptr %14, align 8, !tbaa !128
  %16 = tail call i32 @H5S_select_elements(ptr noundef %15, i32 noundef 0, i64 noundef 1, ptr noundef %3) #12
  %17 = icmp slt i32 %16, 0
  br i1 %17, label %18, label %22

18:                                               ; preds = %13
  %19 = load i64, ptr @H5E_DATASET_g, align 8, !tbaa !10
  %20 = load i64, ptr @H5E_CANTCREATE_g, align 8, !tbaa !10
  %21 = tail call i32 (ptr, ptr, i32, i64, i64, ptr, ...) @H5E_printf_stack(ptr noundef nonnull @.str.2, ptr noundef nonnull @__func__.H5D__vlen_get_buf_size_cb, i32 noundef 2702, i64 noundef %19, i64 noundef %20, ptr noundef nonnull @.str.266) #12
  br label %39

22:                                               ; preds = %13
  %23 = load ptr, ptr %4, align 8, !tbaa !125
  store ptr %23, ptr %6, align 8, !tbaa !139
  %24 = getelementptr inbounds nuw i8, ptr %4, i64 16
  %25 = load ptr, ptr %24, align 8, !tbaa !129
  %26 = getelementptr inbounds nuw i8, ptr %6, i64 184
  store ptr %25, ptr %26, align 8, !tbaa !147
  %27 = load ptr, ptr %14, align 8, !tbaa !128
  %28 = getelementptr inbounds nuw i8, ptr %6, i64 176
  store ptr %27, ptr %28, align 8, !tbaa !148
  %29 = getelementptr inbounds nuw i8, ptr %4, i64 24
  %30 = load ptr, ptr %29, align 8, !tbaa !130
  %31 = getelementptr inbounds nuw i8, ptr %6, i64 120
  store ptr %30, ptr %31, align 8, !tbaa !59
  %32 = getelementptr inbounds nuw i8, ptr %6, i64 200
  store ptr %1, ptr %32, align 8, !tbaa !149
  %33 = call i32 @H5D__read(i64 noundef 1, ptr noundef nonnull %6) #12
  %34 = icmp slt i32 %33, 0
  br i1 %34, label %35, label %39

35:                                               ; preds = %22
  %36 = load i64, ptr @H5E_DATASET_g, align 8, !tbaa !10
  %37 = load i64, ptr @H5E_READERROR_g, align 8, !tbaa !10
  %38 = call i32 (ptr, ptr, i32, i64, i64, ptr, ...) @H5E_printf_stack(ptr noundef nonnull @.str.2, ptr noundef nonnull @__func__.H5D__vlen_get_buf_size_cb, i32 noundef 2713, i64 noundef %36, i64 noundef %37, ptr noundef nonnull @.str.267) #12
  br label %39

39:                                               ; preds = %18, %35, %22, %5
  %.0 = phi i32 [ -1, %18 ], [ -1, %35 ], [ 0, %22 ], [ 0, %5 ]
  call void @llvm.lifetime.end.p0(i64 304, ptr nonnull %6) #12
  ret i32 %.0
}